ARM GAS  /tmp/ccNsnMlk.s 			page 1


   1              		.cpu cortex-m3
   2              		.eabi_attribute 20, 1
   3              		.eabi_attribute 21, 1
   4              		.eabi_attribute 23, 3
   5              		.eabi_attribute 24, 1
   6              		.eabi_attribute 25, 1
   7              		.eabi_attribute 26, 1
   8              		.eabi_attribute 30, 1
   9              		.eabi_attribute 34, 1
  10              		.eabi_attribute 18, 4
  11              		.file	"si446x_hal.c"
  12              		.text
  13              		.section	.text.si446x_hal_morse_init,"ax",%progbits
  14              		.align	1
  15              		.global	si446x_hal_morse_init
  16              		.arch armv7-m
  17              		.syntax unified
  18              		.thumb
  19              		.thumb_func
  20              		.fpu softvfp
  22              	si446x_hal_morse_init:
  23              		@ args = 0, pretend = 0, frame = 0
  24              		@ frame_needed = 0, uses_anonymous_args = 0
  25              		@ link register save eliminated.
  26 0000 074A     		ldr	r2, .L2
  27 0002 9369     		ldr	r3, [r2, #24]
  28 0004 43F00803 		orr	r3, r3, #8
  29 0008 9361     		str	r3, [r2, #24]
  30 000a 064B     		ldr	r3, .L2+4
  31 000c 1A68     		ldr	r2, [r3]
  32 000e 22F00F02 		bic	r2, r2, #15
  33 0012 1A60     		str	r2, [r3]
  34 0014 1A68     		ldr	r2, [r3]
  35 0016 42F00102 		orr	r2, r2, #1
  36 001a 1A60     		str	r2, [r3]
  37 001c 7047     		bx	lr
  38              	.L3:
  39 001e 00BF     		.align	2
  40              	.L2:
  41 0020 00100240 		.word	1073876992
  42 0024 000C0140 		.word	1073810432
  44              		.section	.text.si446x_hal_spi_init,"ax",%progbits
  45              		.align	1
  46              		.global	si446x_hal_spi_init
  47              		.syntax unified
  48              		.thumb
  49              		.thumb_func
  50              		.fpu softvfp
  52              	si446x_hal_spi_init:
  53              		@ args = 0, pretend = 0, frame = 0
  54              		@ frame_needed = 0, uses_anonymous_args = 0
  55              		@ link register save eliminated.
  56 0000 1D4A     		ldr	r2, .L5
  57 0002 9369     		ldr	r3, [r2, #24]
  58 0004 43F00903 		orr	r3, r3, #9
  59 0008 9361     		str	r3, [r2, #24]
  60 000a 1C4B     		ldr	r3, .L5+4
ARM GAS  /tmp/ccNsnMlk.s 			page 2


  61 000c 5968     		ldr	r1, [r3, #4]
  62 000e 41F44031 		orr	r1, r1, #196608
  63 0012 5960     		str	r1, [r3, #4]
  64 0014 5968     		ldr	r1, [r3, #4]
  65 0016 21F44021 		bic	r1, r1, #786432
  66 001a 5960     		str	r1, [r3, #4]
  67 001c 1969     		ldr	r1, [r3, #16]
  68 001e 41F48051 		orr	r1, r1, #4096
  69 0022 1961     		str	r1, [r3, #16]
  70 0024 5968     		ldr	r1, [r3, #4]
  71 0026 21F44001 		bic	r1, r1, #12582912
  72 002a 5960     		str	r1, [r3, #4]
  73 002c 5968     		ldr	r1, [r3, #4]
  74 002e 41F43001 		orr	r1, r1, #11534336
  75 0032 5960     		str	r1, [r3, #4]
  76 0034 5968     		ldr	r1, [r3, #4]
  77 0036 21F07061 		bic	r1, r1, #251658240
  78 003a 5960     		str	r1, [r3, #4]
  79 003c 5968     		ldr	r1, [r3, #4]
  80 003e 41F08061 		orr	r1, r1, #67108864
  81 0042 5960     		str	r1, [r3, #4]
  82 0044 5968     		ldr	r1, [r3, #4]
  83 0046 21F04041 		bic	r1, r1, #-1073741824
  84 004a 5960     		str	r1, [r3, #4]
  85 004c 5968     		ldr	r1, [r3, #4]
  86 004e 41F03041 		orr	r1, r1, #-1342177280
  87 0052 5960     		str	r1, [r3, #4]
  88 0054 D369     		ldr	r3, [r2, #28]
  89 0056 43F48043 		orr	r3, r3, #16384
  90 005a D361     		str	r3, [r2, #28]
  91 005c 084B     		ldr	r3, .L5+8
  92 005e 0022     		movs	r2, #0
  93 0060 1A80     		strh	r2, [r3]	@ movhi
  94 0062 1A88     		ldrh	r2, [r3]
  95 0064 92B2     		uxth	r2, r2
  96 0066 42F44972 		orr	r2, r2, #804
  97 006a 1A80     		strh	r2, [r3]	@ movhi
  98 006c 1A88     		ldrh	r2, [r3]
  99 006e 92B2     		uxth	r2, r2
 100 0070 42F04002 		orr	r2, r2, #64
 101 0074 1A80     		strh	r2, [r3]	@ movhi
 102 0076 7047     		bx	lr
 103              	.L6:
 104              		.align	2
 105              	.L5:
 106 0078 00100240 		.word	1073876992
 107 007c 000C0140 		.word	1073810432
 108 0080 00380040 		.word	1073756160
 110              		.section	.text.si446x_hal_sdn_init,"ax",%progbits
 111              		.align	1
 112              		.global	si446x_hal_sdn_init
 113              		.syntax unified
 114              		.thumb
 115              		.thumb_func
 116              		.fpu softvfp
 118              	si446x_hal_sdn_init:
 119              		@ args = 0, pretend = 0, frame = 0
ARM GAS  /tmp/ccNsnMlk.s 			page 3


 120              		@ frame_needed = 0, uses_anonymous_args = 0
 121              		@ link register save eliminated.
 122 0000 074A     		ldr	r2, .L8
 123 0002 9369     		ldr	r3, [r2, #24]
 124 0004 43F00403 		orr	r3, r3, #4
 125 0008 9361     		str	r3, [r2, #24]
 126 000a 064B     		ldr	r3, .L8+4
 127 000c 1A68     		ldr	r2, [r3]
 128 000e 22F07042 		bic	r2, r2, #-268435456
 129 0012 1A60     		str	r2, [r3]
 130 0014 1A68     		ldr	r2, [r3]
 131 0016 42F00052 		orr	r2, r2, #536870912
 132 001a 1A60     		str	r2, [r3]
 133 001c 7047     		bx	lr
 134              	.L9:
 135 001e 00BF     		.align	2
 136              	.L8:
 137 0020 00100240 		.word	1073876992
 138 0024 00080140 		.word	1073809408
 140              		.section	.text.si446x_hal_init,"ax",%progbits
 141              		.align	1
 142              		.global	si446x_hal_init
 143              		.syntax unified
 144              		.thumb
 145              		.thumb_func
 146              		.fpu softvfp
 148              	si446x_hal_init:
 149              		@ args = 0, pretend = 0, frame = 0
 150              		@ frame_needed = 0, uses_anonymous_args = 0
 151 0000 08B5     		push	{r3, lr}
 152 0002 FFF7FEFF 		bl	si446x_hal_spi_init
 153 0006 FFF7FEFF 		bl	si446x_hal_sdn_init
 154 000a FFF7FEFF 		bl	si446x_hal_morse_init
 155 000e 08BD     		pop	{r3, pc}
 157              		.section	.text.si446x_hal_spi_write_byte,"ax",%progbits
 158              		.align	1
 159              		.global	si446x_hal_spi_write_byte
 160              		.syntax unified
 161              		.thumb
 162              		.thumb_func
 163              		.fpu softvfp
 165              	si446x_hal_spi_write_byte:
 166              		@ args = 0, pretend = 0, frame = 0
 167              		@ frame_needed = 0, uses_anonymous_args = 0
 168              		@ link register save eliminated.
 169              	.L13:
 170 0000 064B     		ldr	r3, .L15
 171 0002 1B89     		ldrh	r3, [r3, #8]
 172 0004 13F0020F 		tst	r3, #2
 173 0008 FAD0     		beq	.L13
 174 000a 80B2     		uxth	r0, r0
 175 000c 034B     		ldr	r3, .L15
 176 000e 9881     		strh	r0, [r3, #12]	@ movhi
 177              	.L14:
 178 0010 024B     		ldr	r3, .L15
 179 0012 1B89     		ldrh	r3, [r3, #8]
 180 0014 13F0800F 		tst	r3, #128
ARM GAS  /tmp/ccNsnMlk.s 			page 4


 181 0018 FAD1     		bne	.L14
 182 001a 7047     		bx	lr
 183              	.L16:
 184              		.align	2
 185              	.L15:
 186 001c 00380040 		.word	1073756160
 188              		.section	.text.si446x_hal_spi_read_byte,"ax",%progbits
 189              		.align	1
 190              		.global	si446x_hal_spi_read_byte
 191              		.syntax unified
 192              		.thumb
 193              		.thumb_func
 194              		.fpu softvfp
 196              	si446x_hal_spi_read_byte:
 197              		@ args = 0, pretend = 0, frame = 0
 198              		@ frame_needed = 0, uses_anonymous_args = 0
 199 0000 08B5     		push	{r3, lr}
 200 0002 FFF7FEFF 		bl	si446x_hal_spi_write_byte
 201              	.L18:
 202 0006 074B     		ldr	r3, .L21
 203 0008 1B89     		ldrh	r3, [r3, #8]
 204 000a 13F0010F 		tst	r3, #1
 205 000e FAD0     		beq	.L18
 206 0010 044B     		ldr	r3, .L21
 207 0012 9889     		ldrh	r0, [r3, #12]
 208 0014 C0B2     		uxtb	r0, r0
 209              	.L19:
 210 0016 034B     		ldr	r3, .L21
 211 0018 1B89     		ldrh	r3, [r3, #8]
 212 001a 13F0800F 		tst	r3, #128
 213 001e FAD1     		bne	.L19
 214 0020 08BD     		pop	{r3, pc}
 215              	.L22:
 216 0022 00BF     		.align	2
 217              	.L21:
 218 0024 00380040 		.word	1073756160
 220              		.section	.text.si446x_hal_spi_read,"ax",%progbits
 221              		.align	1
 222              		.global	si446x_hal_spi_read
 223              		.syntax unified
 224              		.thumb
 225              		.thumb_func
 226              		.fpu softvfp
 228              	si446x_hal_spi_read:
 229              		@ args = 0, pretend = 0, frame = 0
 230              		@ frame_needed = 0, uses_anonymous_args = 0
 231 0000 70B5     		push	{r4, r5, r6, lr}
 232 0002 0646     		mov	r6, r0
 233 0004 0D46     		mov	r5, r1
 234 0006 0024     		movs	r4, #0
 235 0008 05E0     		b	.L24
 236              	.L25:
 237 000a 0020     		movs	r0, #0
 238 000c FFF7FEFF 		bl	si446x_hal_spi_read_byte
 239 0010 3055     		strb	r0, [r6, r4]
 240 0012 0134     		adds	r4, r4, #1
 241 0014 E4B2     		uxtb	r4, r4
ARM GAS  /tmp/ccNsnMlk.s 			page 5


 242              	.L24:
 243 0016 AC42     		cmp	r4, r5
 244 0018 F7D3     		bcc	.L25
 245 001a 70BD     		pop	{r4, r5, r6, pc}
 247              		.section	.text.si446x_hal_spi_write,"ax",%progbits
 248              		.align	1
 249              		.global	si446x_hal_spi_write
 250              		.syntax unified
 251              		.thumb
 252              		.thumb_func
 253              		.fpu softvfp
 255              	si446x_hal_spi_write:
 256              		@ args = 0, pretend = 0, frame = 0
 257              		@ frame_needed = 0, uses_anonymous_args = 0
 258 0000 70B5     		push	{r4, r5, r6, lr}
 259 0002 0646     		mov	r6, r0
 260 0004 0D46     		mov	r5, r1
 261 0006 0024     		movs	r4, #0
 262 0008 04E0     		b	.L28
 263              	.L29:
 264 000a 305D     		ldrb	r0, [r6, r4]	@ zero_extendqisi2
 265 000c FFF7FEFF 		bl	si446x_hal_spi_write_byte
 266 0010 0134     		adds	r4, r4, #1
 267 0012 E4B2     		uxtb	r4, r4
 268              	.L28:
 269 0014 AC42     		cmp	r4, r5
 270 0016 F8D3     		bcc	.L29
 271 0018 70BD     		pop	{r4, r5, r6, pc}
 273              		.ident	"GCC: (15:10.3-2021.07-4) 10.3.1 20210621 (release)"
ARM GAS  /tmp/ccNsnMlk.s 			page 6

